; Function Attrs: mustprogress nounwind uwtable
define internal fastcc void @_ZNSt8_Rb_treeIN4llvm9StringRefESt4pairIKS1_N12_GLOBAL__N_113FunctionMacroEESt10_Select1stIS6_ESt4lessIS1_ESaIS6_EE8_M_eraseEPSt13_Rb_tree_nodeIS6_E(ptr noundef %0) unnamed_addr #0 align 2 {
  %.not1 = icmp eq ptr %0, null
  br i1 %.not1, label %._crit_edge, label %.lr.ph

.lr.ph:                                           ; preds = %1, %_ZNSt8_Rb_treeIN4llvm9StringRefESt4pairIKS1_N12_GLOBAL__N_113FunctionMacroEESt10_Select1stIS6_ESt4lessIS1_ESaIS6_EE12_M_drop_nodeEPSt13_Rb_tree_nodeIS6_E.exit
  %.02 = phi ptr [ %.0.val, %_ZNSt8_Rb_treeIN4llvm9StringRefESt4pairIKS1_N12_GLOBAL__N_113FunctionMacroEESt10_Select1stIS6_ESt4lessIS1_ESaIS6_EE12_M_drop_nodeEPSt13_Rb_tree_nodeIS6_E.exit ], [ %0, %1 ]
  %2 = getelementptr i8, ptr %.02, i64 24
  %.0.val6 = load ptr, ptr %2, align 8
  tail call fastcc void @_ZNSt8_Rb_treeIN4llvm9StringRefESt4pairIKS1_N12_GLOBAL__N_113FunctionMacroEESt10_Select1stIS6_ESt4lessIS1_ESaIS6_EE8_M_eraseEPSt13_Rb_tree_nodeIS6_E(ptr noundef %.0.val6)
  %3 = getelementptr i8, ptr %.02, i64 16
  %.0.val = load ptr, ptr %3, align 8
  %4 = getelementptr i8, ptr %.02, i64 48
  %.val.i = load ptr, ptr %4, align 8
  %.not.i.i.i.i.i.i.i.i.i = icmp eq ptr %.val.i, null
  br i1 %.not.i.i.i.i.i.i.i.i.i, label %_ZNSt8_Rb_treeIN4llvm9StringRefESt4pairIKS1_N12_GLOBAL__N_113FunctionMacroEESt10_Select1stIS6_ESt4lessIS1_ESaIS6_EE12_M_drop_nodeEPSt13_Rb_tree_nodeIS6_E.exit, label %5

5:                                                ; preds = %.lr.ph
  %6 = getelementptr i8, ptr %.02, i64 64
  %.val3.i = load ptr, ptr %6, align 8
  %7 = ptrtoint ptr %.val3.i to i64
  %8 = ptrtoint ptr %.val.i to i64
  %9 = sub i64 %7, %8
  tail call void @_ZdlPvm(ptr noundef nonnull %.val.i, i64 noundef %9) #26
  br label %_ZNSt8_Rb_treeIN4llvm9StringRefESt4pairIKS1_N12_GLOBAL__N_113FunctionMacroEESt10_Select1stIS6_ESt4lessIS1_ESaIS6_EE12_M_drop_nodeEPSt13_Rb_tree_nodeIS6_E.exit

_ZNSt8_Rb_treeIN4llvm9StringRefESt4pairIKS1_N12_GLOBAL__N_113FunctionMacroEESt10_Select1stIS6_ESt4lessIS1_ESaIS6_EE12_M_drop_nodeEPSt13_Rb_tree_nodeIS6_E.exit: ; preds = %.lr.ph, %5
  tail call void @_ZdlPvm(ptr noundef nonnull %.02, i64 noundef 88) #26
  %.not = icmp eq ptr %.0.val, null
  br i1 %.not, label %._crit_edge, label %.lr.ph, !llvm.loop !538

._crit_edge:                                      ; preds = %_ZNSt8_Rb_treeIN4llvm9StringRefESt4pairIKS1_N12_GLOBAL__N_113FunctionMacroEESt10_Select1stIS6_ESt4lessIS1_ESaIS6_EE12_M_drop_nodeEPSt13_Rb_tree_nodeIS6_E.exit, %1
  ret void
}